; Function Attrs: nofree norecurse nosync nounwind memory(readwrite, inaccessiblemem: none) uwtable
define void @Abc_SclUpdateLoad(ptr noundef readonly captures(none) %0, ptr noundef readonly captures(none) %1, ptr noundef readonly captures(none) %2, ptr noundef readonly captures(none) %3) local_unnamed_addr #7 {
  %5 = getelementptr i8, ptr %1, i64 28
  %.val17 = load i32, ptr %5, align 4, !tbaa !66
  %6 = icmp sgt i32 %.val17, 0
  br i1 %6, label %.lr.ph, label %.critedge

.lr.ph:                                           ; preds = %4
  %.val18 = load ptr, ptr %1, align 8, !tbaa !67
  %7 = getelementptr i8, ptr %1, i64 32
  %.val19 = load ptr, ptr %7, align 8, !tbaa !70
  %8 = getelementptr i8, ptr %.val18, i64 32
  %.val18.val = load ptr, ptr %8, align 8, !tbaa !50
  %9 = getelementptr i8, ptr %.val18.val, i64 8
  %.val18.val.val = load ptr, ptr %9, align 8, !tbaa !62
  %10 = getelementptr i8, ptr %0, i64 64
  %.val = load ptr, ptr %10, align 8, !tbaa !44
  %11 = getelementptr i8, ptr %2, i64 56
  %.val21 = load ptr, ptr %11, align 8, !tbaa !62
  %12 = getelementptr i8, ptr %3, i64 56
  %.val20 = load ptr, ptr %12, align 8, !tbaa !62
  %wide.trip.count = zext nneg i32 %.val17 to i64
  br label %13

13:                                               ; preds = %.lr.ph, %13
  %indvars.iv = phi i64 [ 0, %.lr.ph ], [ %indvars.iv.next, %13 ]
  %14 = getelementptr inbounds nuw i32, ptr %.val19, i64 %indvars.iv
  %15 = load i32, ptr %14, align 4, !tbaa !11
  %16 = sext i32 %15 to i64
  %17 = getelementptr inbounds ptr, ptr %.val18.val.val, i64 %16
  %18 = load ptr, ptr %17, align 8, !tbaa !63
  %19 = getelementptr i8, ptr %18, i64 16
  %.val16 = load i32, ptr %19, align 8, !tbaa !45
  %20 = zext i32 %.val16 to i64
  %21 = getelementptr inbounds nuw %struct.SC_Pair_, ptr %.val, i64 %20
  %22 = getelementptr inbounds nuw ptr, ptr %.val21, i64 %indvars.iv
  %23 = load ptr, ptr %22, align 8, !tbaa !63
  %24 = getelementptr inbounds nuw ptr, ptr %.val20, i64 %indvars.iv
  %25 = load ptr, ptr %24, align 8, !tbaa !63
  %26 = getelementptr inbounds nuw i8, ptr %25, i64 16
  %27 = load float, ptr %26, align 8, !tbaa !71
  %28 = getelementptr inbounds nuw i8, ptr %23, i64 16
  %29 = load float, ptr %28, align 8, !tbaa !71
  %30 = fsub float %27, %29
  %31 = load float, ptr %21, align 4, !tbaa !46
  %32 = fadd float %31, %30
  store float %32, ptr %21, align 4, !tbaa !46
  %33 = getelementptr inbounds nuw i8, ptr %25, i64 20
  %34 = load float, ptr %33, align 4, !tbaa !75
  %35 = getelementptr inbounds nuw i8, ptr %23, i64 20
  %36 = load float, ptr %35, align 4, !tbaa !75
  %37 = fsub float %34, %36
  %38 = getelementptr inbounds nuw i8, ptr %21, i64 4
  %39 = load float, ptr %38, align 4, !tbaa !48
  %40 = fadd float %39, %37
  store float %40, ptr %38, align 4, !tbaa !48
  %indvars.iv.next = add nuw nsw i64 %indvars.iv, 1
  %exitcond.not = icmp eq i64 %indvars.iv.next, %wide.trip.count
  br i1 %exitcond.not, label %.critedge, label %13, !llvm.loop !89

.critedge:                                        ; preds = %13, %4
  ret void
}